target datalayout = "e-m:e-p270:32:32-p271:32:32-p272:64:64-i64:64-i128:128-f80:128-n8:16:32:64-S128"
target triple = "x86_64-pc-linux-gnu"

%class.DefaultRndNumGenerator = type { %class.AbsRndNumGenerator, i64, %"class.std::__cxx11::basic_string", ptr }
%class.AbsRndNumGenerator = type { ptr }
%"class.std::__cxx11::basic_string" = type { %"struct.std::__cxx11::basic_string<char>::_Alloc_hider", i64, %union.anon }
%"struct.std::__cxx11::basic_string<char>::_Alloc_hider" = type { ptr }
%union.anon = type { i64, [8 x i8] }
%"class.std::__cxx11::basic_ostringstream" = type { %"class.std::basic_ostream.base", %"class.std::__cxx11::basic_stringbuf", %"class.std::basic_ios" }
%"class.std::basic_ostream.base" = type { ptr }
%"class.std::__cxx11::basic_stringbuf" = type { %"class.std::basic_streambuf", i32, %"class.std::__cxx11::basic_string" }
%"class.std::basic_streambuf" = type { ptr, ptr, ptr, ptr, ptr, ptr, ptr, %"class.std::locale" }
%"class.std::locale" = type { ptr }
%"class.std::basic_ios" = type { %"class.std::ios_base", ptr, i8, i8, ptr, ptr, ptr, ptr }
%"class.std::ios_base" = type { ptr, i64, i64, i32, i32, i32, ptr, %"struct.std::ios_base::_Words", [8 x %"struct.std::ios_base::_Words"], i32, ptr, %"class.std::locale" }
%"struct.std::ios_base::_Words" = type { ptr, i64 }

@_ZZN22DefaultRndNumGenerator8rnd_uptoEjPK6FilterPKNSt7__cxx1112basic_stringIcSt11char_traitsIcESaIcEEEE1g = internal global i32 0, align 4
@.str.1 = private unnamed_addr constant [3 x i8] c"->\00", align 1

; Function Attrs: mustprogress nounwind uwtable
define dso_local void @_ZN22DefaultRndNumGenerator10add_numberEiii(ptr noundef nonnull align 8 dereferenceable(56) %0, i32 noundef %1, i32 noundef %2, i32 noundef %3) #5 align 2 {
  %5 = alloca ptr, align 8
  %6 = alloca i32, align 4
  %7 = alloca i32, align 4
  %8 = alloca i32, align 4
  store ptr %0, ptr %5, align 8
  store i32 %1, ptr %6, align 4
  store i32 %2, ptr %7, align 4
  store i32 %3, ptr %8, align 4
  ret void
}

; Function Attrs: mustprogress uwtable
define dso_local noundef i32 @_ZN22DefaultRndNumGenerator8rnd_uptoEjPK6FilterPKNSt7__cxx1112basic_stringIcSt11char_traitsIcESaIcEEE(ptr noundef nonnull align 8 dereferenceable(56) %0, i32 noundef %1, ptr noundef %2, ptr noundef %3) unnamed_addr #4 align 2 personality ptr @__gxx_personality_v0 {
  %5 = alloca ptr, align 8
  %6 = alloca i32, align 4
  %7 = alloca ptr, align 8
  %8 = alloca ptr, align 8
  %9 = alloca i32, align 4
  %10 = alloca i32, align 4
  %11 = alloca i32, align 4
  %12 = alloca i64, align 8
  %13 = alloca %"class.std::__cxx11::basic_ostringstream", align 8
  %14 = alloca ptr, align 8
  %15 = alloca i32, align 4
  %16 = alloca %"class.std::__cxx11::basic_string", align 8
  store ptr %0, ptr %5, align 8
  store i32 %1, ptr %6, align 4
  store ptr %2, ptr %7, align 8
  store ptr %3, ptr %8, align 8
  %17 = load ptr, ptr %5, align 8
  %18 = load i32, ptr @_ZZN22DefaultRndNumGenerator8rnd_uptoEjPK6FilterPKNSt7__cxx1112basic_stringIcSt11char_traitsIcESaIcEEEE1g, align 4
  store i32 %18, ptr %9, align 4
  %19 = load i32, ptr %9, align 4
  %20 = icmp eq i32 %19, 440
  br i1 %20, label %21, label %24

21:                                               ; preds = %4
  store i32 0, ptr %10, align 4
  %22 = load i32, ptr %10, align 4
  %23 = add nsw i32 %22, 1
  store i32 %23, ptr %10, align 4
  br label %24

24:                                               ; preds = %21, %4
  %25 = load ptr, ptr %17, align 8
  %26 = getelementptr inbounds ptr, ptr %25, i64 10
  %27 = load ptr, ptr %26, align 8
  %28 = call noundef i64 %27(ptr noundef nonnull align 8 dereferenceable(56) %17)
  %29 = load i32, ptr %6, align 4
  %30 = zext i32 %29 to i64
  %31 = urem i64 %28, %30
  %32 = trunc i64 %31 to i32
  store i32 %32, ptr %11, align 4
  %33 = getelementptr inbounds %class.DefaultRndNumGenerator, ptr %17, i32 0, i32 1
  %34 = load i64, ptr %33, align 8
  store i64 %34, ptr %12, align 8
  %35 = getelementptr inbounds %class.DefaultRndNumGenerator, ptr %17, i32 0, i32 1
  %36 = load i64, ptr %35, align 8
  %37 = add i64 %36, 1
  store i64 %37, ptr %35, align 8
  %38 = load ptr, ptr %7, align 8
  %39 = icmp ne ptr %38, null
  br i1 %39, label %40, label %61

40:                                               ; preds = %24
  br label %41

41:                                               ; preds = %48, %40
  %42 = load ptr, ptr %7, align 8
  %43 = load i32, ptr %11, align 4
  %44 = load ptr, ptr %42, align 8
  %45 = getelementptr inbounds ptr, ptr %44, i64 2
  %46 = load ptr, ptr %45, align 8
  %47 = call noundef zeroext i1 %46(ptr noundef nonnull align 8 dereferenceable(16) %42, i32 noundef %43)
  br i1 %47, label %48, label %60

48:                                               ; preds = %41
  %49 = load i64, ptr %12, align 8
  %50 = add i64 %49, 1
  %51 = getelementptr inbounds %class.DefaultRndNumGenerator, ptr %17, i32 0, i32 1
  store i64 %50, ptr %51, align 8
  %52 = load ptr, ptr %17, align 8
  %53 = getelementptr inbounds ptr, ptr %52, i64 10
  %54 = load ptr, ptr %53, align 8
  %55 = call noundef i64 %54(ptr noundef nonnull align 8 dereferenceable(56) %17)
  %56 = load i32, ptr %6, align 4
  %57 = zext i32 %56 to i64
  %58 = urem i64 %55, %57
  %59 = trunc i64 %58 to i32
  store i32 %59, ptr %11, align 4
  br label %41, !llvm.loop !5

60:                                               ; preds = %41
  br label %61

61:                                               ; preds = %60, %24
  %62 = load ptr, ptr %8, align 8
  %63 = icmp ne ptr %62, null
  br i1 %63, label %64, label %83

64:                                               ; preds = %61
  call void @_ZNSt7__cxx1119basic_ostringstreamIcSt11char_traitsIcESaIcEEC1Ev(ptr noundef nonnull align 8 dereferenceable(112) %13)
  %65 = load ptr, ptr %8, align 8
  %66 = invoke noundef nonnull align 8 dereferenceable(8) ptr @_ZStlsIcSt11char_traitsIcESaIcEERSt13basic_ostreamIT_T0_ES7_RKNSt7__cxx1112basic_stringIS4_S5_T1_EE(ptr noundef nonnull align 8 dereferenceable(8) %13, ptr noundef nonnull align 8 dereferenceable(32) %65)
          to label %67 unwind label %74

67:                                               ; preds = %64
  %68 = invoke noundef nonnull align 8 dereferenceable(8) ptr @_ZStlsISt11char_traitsIcEERSt13basic_ostreamIcT_ES5_PKc(ptr noundef nonnull align 8 dereferenceable(8) %66, ptr noundef @.str.1)
          to label %69 unwind label %74

69:                                               ; preds = %67
  invoke void @_ZNKSt7__cxx1119basic_ostringstreamIcSt11char_traitsIcESaIcEE3strEv(ptr dead_on_unwind writable sret(%"class.std::__cxx11::basic_string") align 8 %16, ptr noundef nonnull align 8 dereferenceable(112) %13)
          to label %70 unwind label %74

70:                                               ; preds = %69
  %71 = getelementptr inbounds %class.DefaultRndNumGenerator, ptr %17, i32 0, i32 2
  %72 = invoke noundef nonnull align 8 dereferenceable(32) ptr @_ZNSt7__cxx1112basic_stringIcSt11char_traitsIcESaIcEEpLERKS4_(ptr noundef nonnull align 8 dereferenceable(32) %71, ptr noundef nonnull align 8 dereferenceable(32) %16)
          to label %73 unwind label %78

73:                                               ; preds = %70
  call void @_ZNSt7__cxx1112basic_stringIcSt11char_traitsIcESaIcEED1Ev(ptr noundef nonnull align 8 dereferenceable(32) %16) #3
  call void @_ZNSt7__cxx1119basic_ostringstreamIcSt11char_traitsIcESaIcEED1Ev(ptr noundef nonnull align 8 dereferenceable(112) %13) #3
  br label %83

74:                                               ; preds = %69, %67, %64
  %75 = landingpad { ptr, i32 }
          cleanup
  %76 = extractvalue { ptr, i32 } %75, 0
  store ptr %76, ptr %14, align 8
  %77 = extractvalue { ptr, i32 } %75, 1
  store i32 %77, ptr %15, align 4
  br label %82

78:                                               ; preds = %70
  %79 = landingpad { ptr, i32 }
          cleanup
  %80 = extractvalue { ptr, i32 } %79, 0
  store ptr %80, ptr %14, align 8
  %81 = extractvalue { ptr, i32 } %79, 1
  store i32 %81, ptr %15, align 4
  call void @_ZNSt7__cxx1112basic_stringIcSt11char_traitsIcESaIcEED1Ev(ptr noundef nonnull align 8 dereferenceable(32) %16) #3
  br label %82

82:                                               ; preds = %78, %74
  call void @_ZNSt7__cxx1119basic_ostringstreamIcSt11char_traitsIcESaIcEED1Ev(ptr noundef nonnull align 8 dereferenceable(112) %13) #3
  br label %89

83:                                               ; preds = %73, %61
  %84 = load i32, ptr %11, align 4
  %85 = load i32, ptr %6, align 4
  %86 = load i64, ptr %12, align 8
  %87 = trunc i64 %86 to i32
  call void @_ZN22DefaultRndNumGenerator10add_numberEiii(ptr noundef nonnull align 8 dereferenceable(56) %17, i32 noundef %84, i32 noundef %85, i32 noundef %87)
  %88 = load i32, ptr %11, align 4
  ret i32 %88

89:                                               ; preds = %82
  %90 = load ptr, ptr %14, align 8
  %91 = load i32, ptr %15, align 4
  %92 = insertvalue { ptr, i32 } poison, ptr %90, 0
  %93 = insertvalue { ptr, i32 } %92, i32 %91, 1
  resume { ptr, i32 } %93
}